; Function Attrs: mustprogress nounwind uwtable
define hidden void @_ZN27JvmtiEventControllerPrivate18change_field_watchE10jvmtiEventb(i32 noundef %0, i1 noundef zeroext %1) local_unnamed_addr #3 align 2 {
  switch i32 %0, label %53 [
    i32 64, label %3
    i32 63, label %5
  ]

3:                                                ; preds = %2
  %4 = tail call noundef ptr @_ZN11JvmtiExport33get_field_modification_count_addrEv() #15
  br label %7

5:                                                ; preds = %2
  %6 = tail call noundef ptr @_ZN11JvmtiExport27get_field_access_count_addrEv() #15
  br label %7

7:                                                ; preds = %3, %5
  %.0 = phi ptr [ %6, %5 ], [ %4, %3 ]
  %8 = load i8, ptr @_ZN10JvmtiTrace23_trace_event_controllerE, align 1
  %9 = trunc i8 %8 to i1
  br i1 %9, label %10, label %_ZN16SafeResourceMarkD2Ev.exit

10:                                               ; preds = %7
  %11 = load i32, ptr @_ZN7Threads18_number_of_threadsE, align 4
  %12 = icmp eq i32 %11, 0
  br i1 %12, label %13, label %15

13:                                               ; preds = %10
  %14 = tail call noundef ptr @_ZN9JvmtiUtil29single_threaded_resource_areaEv() #15
  br label %_ZN16SafeResourceMarkC2Ev.exit

15:                                               ; preds = %10
  %16 = tail call align 8 ptr @llvm.threadlocal.address.p0(ptr align 8 @_ZN6Thread12_thr_currentE)
  %17 = load ptr, ptr %16, align 8
  %18 = icmp eq ptr %17, null
  br i1 %18, label %19, label %21

19:                                               ; preds = %15
  %20 = tail call noundef ptr @_ZN9JvmtiUtil29single_threaded_resource_areaEv() #15
  br label %_ZN16SafeResourceMarkC2Ev.exit

21:                                               ; preds = %15
  %22 = getelementptr inbounds i8, ptr %17, i64 800
  %23 = load ptr, ptr %22, align 8
  br label %_ZN16SafeResourceMarkC2Ev.exit

_ZN16SafeResourceMarkC2Ev.exit:                   ; preds = %13, %19, %21
  %.0.i.i = phi ptr [ %14, %13 ], [ %20, %19 ], [ %23, %21 ]
  %24 = getelementptr inbounds i8, ptr %.0.i.i, i64 24
  %25 = load ptr, ptr %24, align 8
  %26 = getelementptr inbounds i8, ptr %.0.i.i, i64 32
  %27 = load ptr, ptr %26, align 8
  %28 = getelementptr inbounds i8, ptr %.0.i.i, i64 40
  %29 = load ptr, ptr %28, align 8
  %30 = getelementptr inbounds i8, ptr %.0.i.i, i64 8
  %31 = load i64, ptr %30, align 8
  %32 = load volatile ptr, ptr getelementptr inbounds (i8, ptr @_ZN16LogTagSetMappingILN6LogTag4typeE69ELS1_0ELS1_0ELS1_0ELS1_0ELS1_0EE7_tagsetE, i64 48), align 8
  %.not = icmp eq ptr %32, null
  br i1 %.not, label %38, label %33

33:                                               ; preds = %_ZN16SafeResourceMarkC2Ev.exit
  %34 = icmp eq i32 %0, 64
  %35 = select i1 %34, ptr @.str.31, ptr @.str.32
  %36 = select i1 %1, ptr @.str.33, ptr @.str.34
  %37 = load i32, ptr %.0, align 4
  tail call void (ptr, ...) @_ZN7LogImplILN6LogTag4typeE69ELS1_0ELS1_0ELS1_0ELS1_0ELS1_0EE5writeILN8LogLevel4typeE1EEEvPKcz(ptr noundef nonnull @.str.30, ptr noundef nonnull %35, ptr noundef nonnull %36, i32 noundef %37)
  br label %38

38:                                               ; preds = %_ZN16SafeResourceMarkC2Ev.exit, %33
  %39 = load ptr, ptr %25, align 8
  %.not.i.i.i.i.i = icmp eq ptr %39, null
  br i1 %.not.i.i.i.i.i, label %41, label %40

40:                                               ; preds = %38
  tail call void @_ZN5Arena17set_size_in_bytesEm(ptr noundef nonnull align 8 dereferenceable(48) %.0.i.i, i64 noundef %31) #15
  tail call void @_ZN5Chunk9next_chopEPS_(ptr noundef nonnull %25) #15
  br label %41

41:                                               ; preds = %40, %38
  %42 = load ptr, ptr %26, align 8
  %.not8.i.i.i.i.i = icmp eq ptr %42, %27
  br i1 %.not8.i.i.i.i.i, label %_ZN16SafeResourceMarkD2Ev.exit, label %43

43:                                               ; preds = %41
  store ptr %25, ptr %24, align 8
  store ptr %27, ptr %26, align 8
  store ptr %29, ptr %28, align 8
  br label %_ZN16SafeResourceMarkD2Ev.exit

_ZN16SafeResourceMarkD2Ev.exit:                   ; preds = %43, %41, %7
  %44 = load i32, ptr %.0, align 4
  br i1 %1, label %45, label %48

45:                                               ; preds = %_ZN16SafeResourceMarkD2Ev.exit
  %46 = add nsw i32 %44, 1
  store i32 %46, ptr %.0, align 4
  %47 = icmp eq i32 %44, 0
  br i1 %47, label %.sink.split, label %53

48:                                               ; preds = %_ZN16SafeResourceMarkD2Ev.exit
  %49 = icmp sgt i32 %44, 0
  br i1 %49, label %50, label %53

50:                                               ; preds = %48
  %51 = add nsw i32 %44, -1
  store i32 %51, ptr %.0, align 4
  %52 = icmp eq i32 %51, 0
  br i1 %52, label %.sink.split, label %53

.sink.split:                                      ; preds = %50, %45
  tail call void @_ZN27JvmtiEventControllerPrivate17recompute_enabledEv()
  br label %53

53:                                               ; preds = %.sink.split, %50, %48, %45, %2
  ret void
}